target datalayout = "e-m:e-p270:32:32-p271:32:32-p272:64:64-i64:64-i128:128-f80:128-n8:16:32:64-S128"
target triple = "x86_64-pc-linux-gnu"

%struct._asn1_ctx_t = type { i32, i32, i8, ptr, ptr, ptr, ptr, ptr, %struct.anon, %struct.anon.2, %struct.anon.3, ptr }
%struct.anon = type { i32, i8, i8, i8, ptr, ptr, i32, i32, ptr, ptr, ptr, %union.anon }
%union.anon = type { %struct.anon.0 }
%struct.anon.0 = type { ptr }
%struct.anon.2 = type { ptr, ptr, ptr }
%struct.anon.3 = type { i32, i8, ptr, i32, i32, ptr, ptr, ptr, %union.anon.4 }
%union.anon.4 = type { %struct.anon.5 }
%struct.anon.5 = type { ptr }
%struct._packet_info = type { ptr, ptr, i32, i32, %struct.nstime_t, %struct.nstime_t, %struct.nstime_t, i8, ptr, ptr, ptr, ptr, %struct._address, %struct._address, %struct._address, %struct._address, %struct._address, %struct._address, i32, ptr, i8, [3 x i8], %struct.anon.7, i32, i32, i32, i32, ptr, i8, ptr, ptr, i16, i16, i32, i32, i16, i32, i32, ptr, ptr, ptr, i8, i8, i16, i16, i16, i32, i16, i16, ptr, ptr, ptr, ptr, ptr, i32, i32 }
%struct.nstime_t = type { i64, i32 }
%struct._address = type { i32, i32, ptr, ptr }
%struct.anon.7 = type { i8, [3 x i8] }
%struct.ulp_private_data_t = type { i8, i8 }

; Function Attrs: null_pointer_is_valid sspstrong uwtable
define internal ptr @ulp_get_private_data(ptr noundef %0) #0 {
  %2 = alloca ptr, align 8
  store ptr %0, ptr %2, align 8
  %3 = load ptr, ptr %2, align 8
  %4 = getelementptr inbounds nuw %struct._asn1_ctx_t, ptr %3, i32 0, i32 7
  %5 = load ptr, ptr %4, align 8
  %6 = icmp eq ptr %5, null
  br i1 %6, label %7, label %16

7:                                                ; preds = %1
  %8 = load ptr, ptr %2, align 8
  %9 = getelementptr inbounds nuw %struct._asn1_ctx_t, ptr %8, i32 0, i32 3
  %10 = load ptr, ptr %9, align 8
  %11 = getelementptr inbounds nuw %struct._packet_info, ptr %10, i32 0, i32 51
  %12 = load ptr, ptr %11, align 8
  %13 = call noalias ptr @wmem_alloc0(ptr noundef %12, i64 noundef 2) #7
  %14 = load ptr, ptr %2, align 8
  %15 = getelementptr inbounds nuw %struct._asn1_ctx_t, ptr %14, i32 0, i32 7
  store ptr %13, ptr %15, align 8
  br label %16

16:                                               ; preds = %7, %1
  %17 = load ptr, ptr %2, align 8
  %18 = getelementptr inbounds nuw %struct._asn1_ctx_t, ptr %17, i32 0, i32 7
  %19 = load ptr, ptr %18, align 8
  ret ptr %19
}

; Function Attrs: null_pointer_is_valid sspstrong uwtable
define internal i32 @dissect_ulp_T_clientName(ptr noundef %0, i32 noundef %1, ptr noundef %2, ptr noundef %3, i32 noundef %4) #0 {
  %6 = alloca ptr, align 8
  %7 = alloca i32, align 4
  %8 = alloca ptr, align 8
  %9 = alloca ptr, align 8
  %10 = alloca i32, align 4
  %11 = alloca ptr, align 8
  %12 = alloca ptr, align 8
  store ptr %0, ptr %6, align 8
  store i32 %1, ptr %7, align 4
  store ptr %2, ptr %8, align 8
  store ptr %3, ptr %9, align 8
  store i32 %4, ptr %10, align 4
  call void @llvm.lifetime.start.p0(i64 8, ptr %11) #6
  %13 = load ptr, ptr %6, align 8
  %14 = load i32, ptr %7, align 4
  %15 = load ptr, ptr %8, align 8
  %16 = load ptr, ptr %9, align 8
  %17 = call i32 @dissect_per_octet_string(ptr noundef %13, i32 noundef %14, ptr noundef %15, ptr noundef %16, i32 noundef -1, i32 noundef 1, i32 noundef 50, i1 noundef zeroext false, ptr noundef %11)
  store i32 %17, ptr %7, align 4
  %18 = load ptr, ptr %11, align 8
  %19 = icmp ne ptr %18, null
  br i1 %19, label %20, label %73

20:                                               ; preds = %5
  call void @llvm.lifetime.start.p0(i64 8, ptr %12) #6
  %21 = load ptr, ptr %8, align 8
  %22 = call ptr @ulp_get_private_data(ptr noundef %21)
  store ptr %22, ptr %12, align 8
  %23 = load ptr, ptr %12, align 8
  %24 = getelementptr inbounds nuw %struct.ulp_private_data_t, ptr %23, i32 0, i32 0
  %25 = load i8, ptr %24, align 1
  %26 = zext i8 %25 to i32
  switch i32 %26, label %54 [
    i32 0, label %27
    i32 1, label %36
    i32 2, label %45
  ]

27:                                               ; preds = %20
  %28 = load ptr, ptr %9, align 8
  %29 = load i32, ptr %10, align 4
  %30 = load ptr, ptr %11, align 8
  %31 = load ptr, ptr %11, align 8
  %32 = call i32 @tvb_reported_length(ptr noundef %31)
  %33 = call ptr @proto_tree_add_item(ptr noundef %28, i32 noundef %29, ptr noundef %30, i32 noundef 0, i32 noundef %32, i32 noundef 6)
  %34 = load ptr, ptr %8, align 8
  %35 = getelementptr inbounds nuw %struct._asn1_ctx_t, ptr %34, i32 0, i32 4
  store ptr %33, ptr %35, align 8
  br label %72

36:                                               ; preds = %20
  %37 = load ptr, ptr %9, align 8
  %38 = load i32, ptr %10, align 4
  %39 = load ptr, ptr %11, align 8
  %40 = load ptr, ptr %11, align 8
  %41 = call i32 @tvb_reported_length(ptr noundef %40)
  %42 = call ptr @proto_tree_add_item(ptr noundef %37, i32 noundef %38, ptr noundef %39, i32 noundef 0, i32 noundef %41, i32 noundef 44)
  %43 = load ptr, ptr %8, align 8
  %44 = getelementptr inbounds nuw %struct._asn1_ctx_t, ptr %43, i32 0, i32 4
  store ptr %42, ptr %44, align 8
  br label %72

45:                                               ; preds = %20
  %46 = load ptr, ptr %9, align 8
  %47 = load i32, ptr %10, align 4
  %48 = load ptr, ptr %11, align 8
  %49 = load ptr, ptr %11, align 8
  %50 = call i32 @tvb_reported_length(ptr noundef %49)
  %51 = call ptr @proto_tree_add_item(ptr noundef %46, i32 noundef %47, ptr noundef %48, i32 noundef 0, i32 noundef %50, i32 noundef 2)
  %52 = load ptr, ptr %8, align 8
  %53 = getelementptr inbounds nuw %struct._asn1_ctx_t, ptr %52, i32 0, i32 4
  store ptr %51, ptr %53, align 8
  br label %72

54:                                               ; preds = %20
  %55 = load ptr, ptr %9, align 8
  %56 = load i32, ptr %10, align 4
  %57 = load ptr, ptr %11, align 8
  %58 = load ptr, ptr %11, align 8
  %59 = call i32 @tvb_reported_length(ptr noundef %58)
  %60 = load ptr, ptr %8, align 8
  %61 = getelementptr inbounds nuw %struct._asn1_ctx_t, ptr %60, i32 0, i32 3
  %62 = load ptr, ptr %61, align 8
  %63 = getelementptr inbounds nuw %struct._packet_info, ptr %62, i32 0, i32 51
  %64 = load ptr, ptr %63, align 8
  %65 = load ptr, ptr %11, align 8
  %66 = load ptr, ptr %11, align 8
  %67 = call i32 @tvb_reported_length(ptr noundef %66)
  %68 = call ptr @tvb_bytes_to_str(ptr noundef %64, ptr noundef %65, i32 noundef 0, i32 noundef %67)
  %69 = call ptr @proto_tree_add_string(ptr noundef %55, i32 noundef %56, ptr noundef %57, i32 noundef 0, i32 noundef %59, ptr noundef %68)
  %70 = load ptr, ptr %8, align 8
  %71 = getelementptr inbounds nuw %struct._asn1_ctx_t, ptr %70, i32 0, i32 4
  store ptr %69, ptr %71, align 8
  br label %72

72:                                               ; preds = %54, %45, %36, %27
  call void @llvm.lifetime.end.p0(i64 8, ptr %12) #6
  br label %73

73:                                               ; preds = %72, %5
  %74 = load i32, ptr %7, align 4
  call void @llvm.lifetime.end.p0(i64 8, ptr %11) #6
  ret i32 %74
}