; Function Attrs: null_pointer_is_valid sspstrong uwtable
define internal i32 @dissect_ulp_T_clientName(ptr noundef %0, i32 noundef %1, ptr noundef %2, ptr noundef %3, i32 noundef %4) #0 {
  %6 = alloca ptr, align 8
  call void @llvm.lifetime.start.p0(i64 8, ptr nonnull %6) #8
  %7 = call i32 @dissect_per_octet_string(ptr noundef %0, i32 noundef %1, ptr noundef %2, ptr noundef %3, i32 noundef -1, i32 noundef 1, i32 noundef 50, i1 noundef zeroext false, ptr noundef nonnull %6)
  %8 = load ptr, ptr %6, align 8
  %.not = icmp eq ptr %8, null
  br i1 %.not, label %39, label %9

9:                                                ; preds = %5
  %10 = getelementptr inbounds nuw i8, ptr %2, i64 48
  %11 = load ptr, ptr %10, align 8
  %12 = icmp eq ptr %11, null
  br i1 %12, label %13, label %ulp_get_private_data.exit

13:                                               ; preds = %9
  %14 = getelementptr inbounds nuw i8, ptr %2, i64 16
  %15 = load ptr, ptr %14, align 8
  %16 = getelementptr inbounds nuw i8, ptr %15, i64 408
  %17 = load ptr, ptr %16, align 8
  %18 = call noalias dereferenceable_or_null(2) ptr @wmem_alloc0(ptr noundef %17, i64 noundef 2) #9
  store ptr %18, ptr %10, align 8
  br label %ulp_get_private_data.exit

ulp_get_private_data.exit:                        ; preds = %9, %13
  %19 = phi ptr [ %18, %13 ], [ %11, %9 ]
  %20 = load i8, ptr %19, align 1
  %21 = load ptr, ptr %6, align 8
  %22 = call i32 @tvb_reported_length(ptr noundef %21)
  switch i8 %20, label %29 [
    i8 0, label %23
    i8 1, label %25
    i8 2, label %27
  ]

23:                                               ; preds = %ulp_get_private_data.exit
  %24 = call ptr @proto_tree_add_item(ptr noundef %3, i32 noundef %4, ptr noundef %21, i32 noundef 0, i32 noundef %22, i32 noundef 6)
  br label %.sink.split

25:                                               ; preds = %ulp_get_private_data.exit
  %26 = call ptr @proto_tree_add_item(ptr noundef %3, i32 noundef %4, ptr noundef %21, i32 noundef 0, i32 noundef %22, i32 noundef 44)
  br label %.sink.split

27:                                               ; preds = %ulp_get_private_data.exit
  %28 = call ptr @proto_tree_add_item(ptr noundef %3, i32 noundef %4, ptr noundef %21, i32 noundef 0, i32 noundef %22, i32 noundef 2)
  br label %.sink.split

29:                                               ; preds = %ulp_get_private_data.exit
  %30 = getelementptr inbounds nuw i8, ptr %2, i64 16
  %31 = load ptr, ptr %30, align 8
  %32 = getelementptr inbounds nuw i8, ptr %31, i64 408
  %33 = load ptr, ptr %32, align 8
  %34 = load ptr, ptr %6, align 8
  %35 = call i32 @tvb_reported_length(ptr noundef %34)
  %36 = call ptr @tvb_bytes_to_str(ptr noundef %33, ptr noundef %34, i32 noundef 0, i32 noundef %35)
  %37 = call ptr @proto_tree_add_string(ptr noundef %3, i32 noundef %4, ptr noundef %21, i32 noundef 0, i32 noundef %22, ptr noundef %36)
  br label %.sink.split

.sink.split:                                      ; preds = %29, %27, %25, %23
  %.sink = phi ptr [ %24, %23 ], [ %26, %25 ], [ %28, %27 ], [ %37, %29 ]
  %38 = getelementptr inbounds nuw i8, ptr %2, i64 24
  store ptr %.sink, ptr %38, align 8
  br label %39

39:                                               ; preds = %.sink.split, %5
  call void @llvm.lifetime.end.p0(i64 8, ptr nonnull %6) #8
  ret i32 %7
}